; Function Attrs: mustprogress uwtable
define internal noundef zeroext i1 @_ZN32pxrInternal_v0_24__pxrReserved__12_GLOBAL__N_111_CubeToMesh17_PointsDataSource37GetContributingSampleTimesForIntervalEffPSt6vectorIfSaIfEE(ptr noundef nonnull align 8 dereferenceable(24) %0, float noundef %1, float noundef %2, ptr noundef %3) unnamed_addr #1 align 2 personality ptr @__gxx_personality_v0 {
  %5 = alloca %"class.std::shared_ptr.97", align 8
  call fastcc void @_ZNK32pxrInternal_v0_24__pxrReserved__12_GLOBAL__N_111_CubeToMesh17_PointsDataSource14_GetSizeSourceEv(ptr dead_on_unwind noalias nonnull writable align 8 %5, ptr noundef nonnull align 8 dereferenceable(24) %0)
  %6 = load ptr, ptr %5, align 8
  %.not = icmp ne ptr %6, null
  br i1 %.not, label %7, label %14

7:                                                ; preds = %4
  %8 = load ptr, ptr %6, align 8
  %9 = getelementptr inbounds i8, ptr %8, i64 24
  %10 = load ptr, ptr %9, align 8
  %11 = invoke noundef zeroext i1 %10(ptr noundef nonnull align 8 dereferenceable(8) %6, float noundef %1, float noundef %2, ptr noundef %3)
          to label %14 unwind label %12

12:                                               ; preds = %7
  %13 = landingpad { ptr, i32 }
          cleanup
  call void @_ZNSt10shared_ptrIN32pxrInternal_v0_24__pxrReserved__24HdTypedSampledDataSourceIdEEED2Ev(ptr noundef nonnull align 8 dereferenceable(16) %5) #24
  resume { ptr, i32 } %13

14:                                               ; preds = %4, %7
  %.07 = phi i1 [ %11, %7 ], [ undef, %4 ]
  %15 = getelementptr inbounds nuw i8, ptr %5, i64 8
  %16 = load ptr, ptr %15, align 8
  %.not.i.i.i = icmp eq ptr %16, null
  br i1 %.not.i.i.i, label %_ZNSt10shared_ptrIN32pxrInternal_v0_24__pxrReserved__24HdTypedSampledDataSourceIdEEED2Ev.exit, label %17

17:                                               ; preds = %14
  %18 = getelementptr inbounds nuw i8, ptr %16, i64 8
  %19 = load atomic i64, ptr %18 acquire, align 8
  %20 = icmp eq i64 %19, 4294967297
  %21 = trunc i64 %19 to i32
  br i1 %20, label %22, label %27

22:                                               ; preds = %17
  store i32 0, ptr %18, align 8
  %23 = getelementptr inbounds nuw i8, ptr %16, i64 12
  store i32 0, ptr %23, align 4
  %24 = load ptr, ptr %16, align 8
  %25 = getelementptr inbounds i8, ptr %24, i64 16
  %26 = load ptr, ptr %25, align 8
  tail call void %26(ptr noundef nonnull align 8 dereferenceable(16) %16) #24
  br label %_ZNSt16_Sp_counted_baseILN9__gnu_cxx12_Lock_policyE2EE24_M_release_last_use_coldEv.exit.sink.split.i.i.i.i

27:                                               ; preds = %17
  %28 = load i8, ptr @__libc_single_threaded, align 1
  %.not.i.i.i.i = icmp eq i8 %28, 0
  br i1 %.not.i.i.i.i, label %31, label %29

29:                                               ; preds = %27
  %30 = add nsw i32 %21, -1
  store i32 %30, ptr %18, align 4
  br label %33

31:                                               ; preds = %27
  %32 = atomicrmw volatile add ptr %18, i32 -1 acq_rel, align 4
  br label %33

33:                                               ; preds = %31, %29
  %.0.i.i.i.i = phi i32 [ %21, %29 ], [ %32, %31 ]
  %34 = icmp eq i32 %.0.i.i.i.i, 1
  br i1 %34, label %35, label %_ZNSt10shared_ptrIN32pxrInternal_v0_24__pxrReserved__24HdTypedSampledDataSourceIdEEED2Ev.exit

35:                                               ; preds = %33
  %36 = load ptr, ptr %16, align 8
  %37 = getelementptr inbounds i8, ptr %36, i64 16
  %38 = load ptr, ptr %37, align 8
  tail call void %38(ptr noundef nonnull align 8 dereferenceable(16) %16) #24
  %39 = getelementptr inbounds nuw i8, ptr %16, i64 12
  %40 = load i8, ptr @__libc_single_threaded, align 1
  %.not.i.i.i.i.i.i = icmp eq i8 %40, 0
  br i1 %.not.i.i.i.i.i.i, label %44, label %41

41:                                               ; preds = %35
  %42 = load i32, ptr %39, align 4
  %43 = add nsw i32 %42, -1
  store i32 %43, ptr %39, align 4
  br label %46

44:                                               ; preds = %35
  %45 = atomicrmw volatile add ptr %39, i32 -1 acq_rel, align 4
  br label %46

46:                                               ; preds = %44, %41
  %.0.i.i.i.i.i.i = phi i32 [ %42, %41 ], [ %45, %44 ]
  %47 = icmp eq i32 %.0.i.i.i.i.i.i, 1
  br i1 %47, label %_ZNSt16_Sp_counted_baseILN9__gnu_cxx12_Lock_policyE2EE24_M_release_last_use_coldEv.exit.sink.split.i.i.i.i, label %_ZNSt10shared_ptrIN32pxrInternal_v0_24__pxrReserved__24HdTypedSampledDataSourceIdEEED2Ev.exit

_ZNSt16_Sp_counted_baseILN9__gnu_cxx12_Lock_policyE2EE24_M_release_last_use_coldEv.exit.sink.split.i.i.i.i: ; preds = %46, %22
  %48 = load ptr, ptr %16, align 8
  %49 = getelementptr inbounds i8, ptr %48, i64 24
  %50 = load ptr, ptr %49, align 8
  tail call void %50(ptr noundef nonnull align 8 dereferenceable(16) %16) #24
  br label %_ZNSt10shared_ptrIN32pxrInternal_v0_24__pxrReserved__24HdTypedSampledDataSourceIdEEED2Ev.exit

_ZNSt10shared_ptrIN32pxrInternal_v0_24__pxrReserved__24HdTypedSampledDataSourceIdEEED2Ev.exit: ; preds = %14, %33, %46, %_ZNSt16_Sp_counted_baseILN9__gnu_cxx12_Lock_policyE2EE24_M_release_last_use_coldEv.exit.sink.split.i.i.i.i
  %spec.select = and i1 %.not, %.07
  ret i1 %spec.select
}